target datalayout = "e-m:e-p270:32:32-p271:32:32-p272:64:64-i64:64-i128:128-f80:128-n8:16:32:64-S128"
target triple = "x86_64-unknown-linux-gnu"

%"class.std::set.11" = type { %"class.std::_Rb_tree.12" }
%"class.std::_Rb_tree.12" = type { %"struct.std::_Rb_tree<QuantLib::Observer *, QuantLib::Observer *, std::_Identity<QuantLib::Observer *>, std::less<QuantLib::Observer *>>::_Rb_tree_impl" }
%"struct.std::_Rb_tree<QuantLib::Observer *, QuantLib::Observer *, std::_Identity<QuantLib::Observer *>, std::less<QuantLib::Observer *>>::_Rb_tree_impl" = type { [8 x i8], %"struct.std::_Rb_tree_header" }
%"struct.std::_Rb_tree_header" = type { %"struct.std::_Rb_tree_node_base", i64 }
%"struct.std::_Rb_tree_node_base" = type { i32, ptr, ptr, ptr }
%"class.boost::detail::shared_count" = type { ptr }
%"class.std::set" = type { %"class.std::_Rb_tree" }
%"class.std::_Rb_tree" = type { %"struct.std::_Rb_tree<boost::shared_ptr<QuantLib::Observable>, boost::shared_ptr<QuantLib::Observable>, std::_Identity<boost::shared_ptr<QuantLib::Observable>>, std::less<boost::shared_ptr<QuantLib::Observable>>>::_Rb_tree_impl" }
%"struct.std::_Rb_tree<boost::shared_ptr<QuantLib::Observable>, boost::shared_ptr<QuantLib::Observable>, std::_Identity<boost::shared_ptr<QuantLib::Observable>>, std::less<boost::shared_ptr<QuantLib::Observable>>>::_Rb_tree_impl" = type { [8 x i8], %"struct.std::_Rb_tree_header" }
%"class.QuantLib::Observable" = type { ptr, %"class.std::set.11" }
%"class.QuantLib::COSHestonEngine" = type { %"class.QuantLib::GenericModelEngine", double, i64, double, double, double, double, double }
%"class.QuantLib::GenericModelEngine" = type { %"class.QuantLib::GenericEngine", %"class.QuantLib::Handle" }
%"class.QuantLib::GenericEngine" = type { %"class.QuantLib::PricingEngine", %"class.QuantLib::Observer", %"class.QuantLib::Option::arguments", %"class.QuantLib::OneAssetOption::results" }
%"class.QuantLib::PricingEngine" = type { %"class.QuantLib::Observable" }
%"class.QuantLib::Observer" = type { ptr, %"class.std::set" }
%"class.QuantLib::Option::arguments" = type { %"class.QuantLib::PricingEngine::arguments", %"class.boost::shared_ptr.25", %"class.boost::shared_ptr.26" }
%"class.QuantLib::PricingEngine::arguments" = type { ptr }
%"class.boost::shared_ptr.25" = type { ptr, %"class.boost::detail::shared_count" }
%"class.boost::shared_ptr.26" = type { ptr, %"class.boost::detail::shared_count" }
%"class.QuantLib::OneAssetOption::results" = type { %"class.QuantLib::Instrument::results", %"class.QuantLib::Greeks", %"class.QuantLib::MoreGreeks" }
%"class.QuantLib::Instrument::results" = type { %"class.QuantLib::PricingEngine::results", double, double, %"class.QuantLib::Date", %"class.std::map" }
%"class.QuantLib::PricingEngine::results" = type { ptr }
%"class.QuantLib::Date" = type { i64 }
%"class.std::map" = type { %"class.std::_Rb_tree.19" }
%"class.std::_Rb_tree.19" = type { %"struct.std::_Rb_tree<std::__cxx11::basic_string<char>, std::pair<const std::__cxx11::basic_string<char>, boost::any>, std::_Select1st<std::pair<const std::__cxx11::basic_string<char>, boost::any>>, std::less<std::__cxx11::basic_string<char>>>::_Rb_tree_impl" }
%"struct.std::_Rb_tree<std::__cxx11::basic_string<char>, std::pair<const std::__cxx11::basic_string<char>, boost::any>, std::_Select1st<std::pair<const std::__cxx11::basic_string<char>, boost::any>>, std::less<std::__cxx11::basic_string<char>>>::_Rb_tree_impl" = type { [8 x i8], %"struct.std::_Rb_tree_header" }
%"class.QuantLib::Greeks" = type { %"class.QuantLib::PricingEngine::results", double, double, double, double, double, double }
%"class.QuantLib::MoreGreeks" = type { %"class.QuantLib::PricingEngine::results", double, double, double, double, double }
%"class.QuantLib::Handle" = type { %"class.boost::shared_ptr.27" }
%"class.boost::shared_ptr.27" = type { ptr, %"class.boost::detail::shared_count" }

; Function Attrs: mustprogress nounwind uwtable
define noundef double @_ZNK8QuantLib15COSHestonEngine2c1Ed(ptr noundef nonnull align 8 dereferenceable(408) %this, double noundef %t) #3 align 2 {
entry:
  %this.addr = alloca ptr, align 8
  %t.addr = alloca double, align 8
  store ptr %this, ptr %this.addr, align 8, !tbaa !3
  store double %t, ptr %t.addr, align 8, !tbaa !14
  %this1 = load ptr, ptr %this.addr, align 8
  %theta_ = getelementptr inbounds nuw %"class.QuantLib::COSHestonEngine", ptr %this1, i32 0, i32 4
  %0 = load double, ptr %theta_, align 8, !tbaa !55
  %fneg = fneg double %0
  %kappa_ = getelementptr inbounds nuw %"class.QuantLib::COSHestonEngine", ptr %this1, i32 0, i32 3
  %1 = load double, ptr %kappa_, align 8, !tbaa !54
  %2 = load double, ptr %t.addr, align 8, !tbaa !14
  %mul = fmul double %1, %2
  %call = call double @exp(double noundef %mul) #13, !tbaa !61
  %theta_2 = getelementptr inbounds nuw %"class.QuantLib::COSHestonEngine", ptr %this1, i32 0, i32 4
  %3 = load double, ptr %theta_2, align 8, !tbaa !55
  %kappa_3 = getelementptr inbounds nuw %"class.QuantLib::COSHestonEngine", ptr %this1, i32 0, i32 3
  %4 = load double, ptr %kappa_3, align 8, !tbaa !54
  %5 = load double, ptr %t.addr, align 8, !tbaa !14
  %mul4 = fmul double %4, %5
  %theta_5 = getelementptr inbounds nuw %"class.QuantLib::COSHestonEngine", ptr %this1, i32 0, i32 4
  %6 = load double, ptr %theta_5, align 8, !tbaa !55
  %neg = fneg double %mul4
  %7 = call double @llvm.fmuladd.f64(double %neg, double %6, double %3)
  %v0_ = getelementptr inbounds nuw %"class.QuantLib::COSHestonEngine", ptr %this1, i32 0, i32 7
  %8 = load double, ptr %v0_, align 8, !tbaa !58
  %sub = fsub double %7, %8
  %9 = call double @llvm.fmuladd.f64(double %call, double %sub, double %fneg)
  %v0_8 = getelementptr inbounds nuw %"class.QuantLib::COSHestonEngine", ptr %this1, i32 0, i32 7
  %10 = load double, ptr %v0_8, align 8, !tbaa !58
  %add = fadd double %9, %10
  %kappa_9 = getelementptr inbounds nuw %"class.QuantLib::COSHestonEngine", ptr %this1, i32 0, i32 3
  %11 = load double, ptr %kappa_9, align 8, !tbaa !54
  %12 = load double, ptr %t.addr, align 8, !tbaa !14
  %mul10 = fmul double %11, %12
  %call11 = call double @exp(double noundef %mul10) #13, !tbaa !61
  %mul12 = fmul double 2.000000e+00, %call11
  %kappa_13 = getelementptr inbounds nuw %"class.QuantLib::COSHestonEngine", ptr %this1, i32 0, i32 3
  %13 = load double, ptr %kappa_13, align 8, !tbaa !54
  %mul14 = fmul double %mul12, %13
  %div = fdiv double %add, %mul14
  ret double %div
}