; Function Attrs: mustprogress nofree nounwind willreturn memory(write, argmem: readwrite) uwtable
define noundef double @_ZNK8QuantLib15COSHestonEngine2c1Ed(ptr nocapture noundef nonnull readonly align 8 dereferenceable(408) %this, double noundef %t) local_unnamed_addr #12 align 2 {
entry:
  %theta_ = getelementptr inbounds nuw i8, ptr %this, i64 376
  %0 = load double, ptr %theta_, align 8, !tbaa !76
  %fneg = fneg double %0
  %kappa_ = getelementptr inbounds nuw i8, ptr %this, i64 368
  %1 = load double, ptr %kappa_, align 8, !tbaa !75
  %mul = fmul double %t, %1
  %call = tail call double @exp(double noundef %mul) #29, !tbaa !108
  %neg = fneg double %mul
  %2 = tail call double @llvm.fmuladd.f64(double %neg, double %0, double %0)
  %v0_ = getelementptr inbounds nuw i8, ptr %this, i64 400
  %3 = load double, ptr %v0_, align 8, !tbaa !79
  %sub = fsub double %2, %3
  %4 = tail call double @llvm.fmuladd.f64(double %call, double %sub, double %fneg)
  %add = fadd double %3, %4
  %call11 = tail call double @exp(double noundef %mul) #29, !tbaa !108
  %mul12 = fmul double %call11, 2.000000e+00
  %mul14 = fmul double %1, %mul12
  %div = fdiv double %add, %mul14
  ret double %div
}